; Function Attrs: mustprogress nounwind uwtable
define dso_local noundef ptr @_ZNK4llvm19ReachingDefAnalysis12getMIOperandEPNS_12MachineInstrEj(ptr nocapture noundef nonnull readonly align 8 dereferenceable(444) %0, ptr noundef %1, i32 noundef %2) local_unnamed_addr #0 align 2 {
  %4 = getelementptr inbounds nuw i8, ptr %1, i64 32
  %5 = load ptr, ptr %4, align 8
  %6 = zext i32 %2 to i64
  %7 = getelementptr inbounds %"class.llvm::MachineOperand", ptr %5, i64 %6, i32 1
  %8 = load i32, ptr %7, align 4
  %9 = tail call noundef ptr @_ZNK4llvm19ReachingDefAnalysis22getUniqueReachingMIDefEPNS_12MachineInstrENS_10MCRegisterE(ptr noundef nonnull align 8 dereferenceable(444) %0, ptr noundef nonnull %1, i32 %8)
  ret ptr %9
}